; Function Attrs: mustprogress uwtable
define void @_ZN2cv15line_descriptor16BinaryDescriptor22createBinaryDescriptorEv(ptr dead_on_unwind noalias nocapture writable writeonly sret(%"struct.cv::Ptr.42") align 8 %0) local_unnamed_addr #5 align 2 personality ptr @__gxx_personality_v0 {
  %2 = alloca %"struct.cv::line_descriptor::BinaryDescriptor::Params", align 4
  %3 = tail call noalias noundef nonnull dereferenceable(192) ptr @_Znwm(i64 noundef 192) #22
  invoke void @_ZN2cv15line_descriptor16BinaryDescriptor6ParamsC1Ev(ptr noundef nonnull align 4 dereferenceable(16) %2)
          to label %4 unwind label %24

4:                                                ; preds = %1
  invoke void @_ZN2cv15line_descriptor16BinaryDescriptorC1ERKNS1_6ParamsE(ptr noundef nonnull align 8 dereferenceable(192) %3, ptr noundef nonnull align 4 dereferenceable(16) %2)
          to label %5 unwind label %24

5:                                                ; preds = %4
  store ptr %3, ptr %0, align 8
  %6 = getelementptr inbounds i8, ptr %0, i64 8
  store ptr null, ptr %6, align 8
  %7 = invoke noalias noundef nonnull dereferenceable(24) ptr @_Znwm(i64 noundef 24) #22
          to label %_ZN2cv3PtrINS_15line_descriptor16BinaryDescriptorEEC2IS2_EEPT_.exit unwind label %8

8:                                                ; preds = %5
  %9 = landingpad { ptr, i32 }
          catch ptr null
  %10 = extractvalue { ptr, i32 } %9, 0
  %11 = call ptr @__cxa_begin_catch(ptr %10) #23
  %12 = load ptr, ptr %3, align 8
  %13 = getelementptr inbounds i8, ptr %12, i64 8
  %14 = load ptr, ptr %13, align 8
  call void %14(ptr noundef nonnull align 8 dereferenceable(192) %3) #23
  invoke void @__cxa_rethrow() #25
          to label %20 unwind label %15

15:                                               ; preds = %8
  %16 = landingpad { ptr, i32 }
          cleanup
  invoke void @__cxa_end_catch()
          to label %common.resume unwind label %17

common.resume:                                    ; preds = %15, %24
  %common.resume.op = phi { ptr, i32 } [ %25, %24 ], [ %16, %15 ]
  resume { ptr, i32 } %common.resume.op

17:                                               ; preds = %15
  %18 = landingpad { ptr, i32 }
          catch ptr null
  %19 = extractvalue { ptr, i32 } %18, 0
  call void @__clang_call_terminate(ptr %19) #26
  unreachable

20:                                               ; preds = %8
  unreachable

_ZN2cv3PtrINS_15line_descriptor16BinaryDescriptorEEC2IS2_EEPT_.exit: ; preds = %5
  %21 = getelementptr inbounds i8, ptr %7, i64 8
  store i32 1, ptr %21, align 8
  %22 = getelementptr inbounds i8, ptr %7, i64 12
  store i32 1, ptr %22, align 4
  store ptr getelementptr inbounds inrange(-16, 40) (i8, ptr @_ZTVSt15_Sp_counted_ptrIPN2cv15line_descriptor16BinaryDescriptorELN9__gnu_cxx12_Lock_policyE2EE, i64 16), ptr %7, align 8
  %23 = getelementptr inbounds i8, ptr %7, i64 16
  store ptr %3, ptr %23, align 8
  store ptr %7, ptr %6, align 8
  ret void

24:                                               ; preds = %4, %1
  %25 = landingpad { ptr, i32 }
          cleanup
  call void @_ZdlPv(ptr noundef nonnull %3) #24
  br label %common.resume
}